; Function Attrs: mustprogress nofree norecurse nosync nounwind null_pointer_is_valid sspstrong willreturn memory(write, argmem: readwrite, inaccessiblemem: none) uwtable
define internal noundef i32 @rtp_event_packet(ptr noundef %0, ptr noundef readonly captures(none) %1, ptr readnone captures(none) %2, ptr noundef readonly captures(none) %3, i32 %4) #3 {
  %6 = getelementptr inbounds nuw i8, ptr %3, i64 4
  %7 = load i32, ptr %6, align 4
  %8 = icmp eq i32 %7, 0
  br i1 %8, label %21, label %9

9:                                                ; preds = %5
  %10 = ptrtoint ptr %0 to i64
  %11 = add i64 %10, -12
  %12 = inttoptr i64 %11 to ptr
  %13 = getelementptr inbounds nuw i8, ptr %1, i64 20
  %14 = load i32, ptr %13, align 4
  %15 = getelementptr inbounds nuw i8, ptr %12, i64 120
  store i32 %14, ptr %15, align 8
  %16 = load i8, ptr %3, align 4
  %17 = getelementptr inbounds nuw i8, ptr %12, i64 124
  store i8 %16, ptr %17, align 4
  %18 = getelementptr inbounds nuw i8, ptr %3, i64 10
  %19 = load i8, ptr %18, align 2, !range !9, !noundef !10
  %20 = getelementptr inbounds nuw i8, ptr %12, i64 125
  store i8 %19, ptr %20, align 1
  br label %21

21:                                               ; preds = %5, %9
  ret i32 0
}